(dp1
S'output'
p2
S"<type 'exceptions.NameError'> name 'r' is not defined"
p3
sS'layer'
p4
S'/mnt/c/Users/Me/Desktop/UCSC/CS183/said-it/applications/init/views/default/index.html'
p5
sS'code'
p6
S'response.write(\'<!DOCTYPE html>\\n<!--[if (gt IE 9)|!(IE)]><!--> <html class="no-js" lang="\', escape=False)\nresponse.write(T.accepted_language or \'en\')\nresponse.write(\'"> <!--<![endif]-->\\n  <head>\\n    <meta charset="utf-8">\\n    <!-- www.phpied.com/conditional-comments-block-downloads/ -->\\n    <!-- Always force latest IE rendering engine\\n         (even in intranet) & Chrome Frame\\n         Remove this if you use the .htaccess -->\\n    <meta http-equiv="X-UA-Compatible" content="IE=edge\', escape=False)\nresponse.write(not request.is_local and \',chrome=1\' or \'\')\nresponse.write(\'">\\n    <!--  Mobile Viewport Fix\\n          j.mp/mobileviewport & davidbcalhoun.com/2010/viewport-metatag\\n          device-width: Occupy full width of the screen in its current orientation\\n          initial-scale = 1.0 retains dimensions instead of zooming out if page height > device height\\n          user-scalable = yes allows the user to zoom in -->\\n    <meta name="viewport" content="width=device-width, initial-scale=1.0">\\n    <!-- http://dev.w3.org/html5/markup/meta.name.html -->\\n    <meta name="application-name" content="\', escape=False)\nresponse.write(request.application)\nresponse.write(\'">\\n    <!-- Speaking of Google, don\\\'t forget to set your site up:\\n         http://google.com/webmasters -->\\n    <meta name="google-site-verification" content="">\\n    <!-- include stylesheets -->\\n    <link rel="stylesheet" href="https://cdnjs.cloudflare.com/ajax/libs/font-awesome/4.7.0/css/font-awesome.min.css"/>\\n    <link rel="stylesheet" href="\', escape=False)\nresponse.write(URL(\'static\',\'css/bootstrap.min.css\'))\nresponse.write(\'"/>\\n    <link rel="stylesheet" href="\', escape=False)\nresponse.write(URL(\'static\',\'css/web2py-bootstrap4.css\'))\nresponse.write(\'"/>\\n    <link rel="stylesheet" href="\', escape=False)\nresponse.write(URL(\'static\',\'css/allcss.css\'))\nresponse.write(\'"/>\\n    <link rel="stylesheet" href="\', escape=False)\nresponse.write(URL(\'static\',\'css/myapp.css\'))\nresponse.write(\'"/>\\n    <link rel="shortcut icon" type="image/icon" href="\', escape=False)\nresponse.write(URL(\'static/images\', \'favicon.ico\'))\nresponse.write(\'"/>\\n    <!-- All JavaScript at the bottom, except for Modernizr which enables\\n         HTML5 elements & feature detects -->\\n    <script src="\', escape=False)\nresponse.write(URL(\'static\',\'js/modernizr-2.8.3.min.js\'))\nresponse.write(\'"></script>\\n    <!-- Favicons -->\\n    \', escape=False)\nresponse.write(\'<script type="text/javascript"><!--\\n    // These variables are used by the web2py_ajax_init function in web2py_ajax.js (which is loaded below).\\n    \', escape=False)\nresponse.write(ASSIGNJS(\nw2p_ajax_confirm_message = T(\'Are you sure you want to delete this object?\'),\nw2p_ajax_disable_with_message = T(\'Working...\'),\nw2p_ajax_date_format = T(\'%Y-%m-%d\'),\nw2p_ajax_datetime_format = T(\'%Y-%m-%d %H:%M:%S\'),\najax_error_500 = T.M(\'An error occured, please [[reload %s]] the page\') % URL(args=request.args, vars=request.get_vars)\n))\nresponse.write(\'\\n    //--></script>\\n\', escape=False)\nresponse.files.insert(0,URL(\'static\',\'js/jquery.js\'))\nresponse.files.insert(1,URL(\'static\',\'css/calendar.css\'))\nresponse.files.insert(2,URL(\'static\',\'js/calendar.js\'))\nresponse.files.insert(3,URL(\'static\',\'js/web2py.js\'))\nresponse.include_meta()\nresponse.include_files()\nresponse.write(\'\\n\', escape=False)\nresponse.write(\'\\n    \', escape=False)\nresponse.write(\'\\n  </head>\\n  <body>\\n    <!-- Navbar ======================================= -->\\n    <nav class="navbar navbar-light navbar-expand-md bg-faded bg-dark navbar-dark justify-content-center">\\n       <a href="\', escape=False)\nresponse.write(URL(\'default\',\'index\'))\nresponse.write(\'" class="navbar-brand mr"><img src="\', escape=False)\nresponse.write(URL(\'static/images\', \'logo2.png\'))\nresponse.write(\'"></a>\\n       <button class="navbar-toggler" type="button" data-toggle="collapse" data-target="#navbarNavDropdown" aria-controls="navbarNavDropdown" aria-expanded="false" aria-label="Toggle navigation">\\n         <span class="navbar-toggler-icon"></span>\\n       </button>\\n       <div class="navbar-collapse collapse w-100" id="navbarNavDropdown">\\n         <ul class="navbar-nav w-100 justify-content-center">\\n          \', escape=False)\nfor _item in response.menu or []:\n    response.write(\'\\n          \', escape=False)\n    if len(_item)<4 or not _item[3]:\n        response.write(\'\\n          <li class="nav-item \', escape=False)\n        if _item[1]:\n            response.write(\'active\', escape=False)\n            pass\n        response.write(\'">\\n            <a class="nav-link" href="\', escape=False)\n        response.write(_item[2])\n        response.write(\'">\', escape=False)\n        response.write(_item[0])\n        response.write(\'</a>\\n          </li>\\n          \', escape=False)\n    else:\n        response.write(\'\\n          <li class="nav-item dropdown">\\n            <a class="nav-link dropdown-toggle" href="\', escape=False)\n        response.write(_item[2])\n        response.write(\'" data-toggle="dropdown" aria-haspopup="true" aria-expanded="false">\', escape=False)\n        response.write(_item[0])\n        response.write(\'</a>\\n            <div class="dropdown-menu">\\n              \', escape=False)\n        for _subitem in _item[3]:\n            response.write(\'\\n              <a class="dropdown-item" href="\', escape=False)\n            response.write(_subitem[2])\n            response.write(\'">\', escape=False)\n            response.write(_subitem[0])\n            response.write(\'</a>\\n              \', escape=False)\n            pass\n        response.write(\'\\n            </div>\\n          </li>\\n          \', escape=False)\n        pass\n    response.write(\'\\n          \', escape=False)\n    pass\nresponse.write(\'\\n        </ul>\\n        <form class="form-inline my-2 my-lg-0">\\n            <input class="form-control sm-2" type="text" placeholder="Search">\\n        </form>\\n        \', escape=False)\nif \'auth\' in globals():\n    response.write(\'\\n        <ul class="nav navbar-nav ml-auto w-100 justify-content-end">\\n          <li class="nav-item dropdown">\\n            <a class="nav-link dropdown-toggle" href="#" data-toggle="dropdown" aria-haspopup="true" aria-expanded="false">\\n              \', escape=False)\n    if auth.user:\n        response.write(auth.user.first_name)\n    else:\n        response.write(\'LOGIN\', escape=False)\n        pass\n    response.write(\'\\n            </a>\\n            <div class="dropdown-menu dropdown-menu-right">\\n              \', escape=False)\n    if auth.user:\n        response.write(\'\\n              <a class="dropdown-item" href="\', escape=False)\n        response.write(URL(\'default\',\'user/profile\'))\n        response.write(\'">\', escape=False)\n        response.write(T(\'Profile\'))\n        response.write(\'</a>\\n              \', escape=False)\n        if \'change_password\' not in auth.settings.actions_disabled:\n            response.write(\'\\n              <a class="dropdown-item" href="\', escape=False)\n            response.write(URL(\'default\',\'user/change_password\'))\n            response.write(\'">\', escape=False)\n            response.write(T(\'Change Password\'))\n            response.write(\'</a>\\n              \', escape=False)\n            pass\n        response.write(\'\\n              <a class="dropdown-item" href="\', escape=False)\n        response.write(URL(\'default\',\'user/logout\'))\n        response.write(\'">\', escape=False)\n        response.write(T(\'Logout\'))\n        response.write(\'</a>\\n              \', escape=False)\n    else:\n        response.write(\'\\n              <a class="dropdown-item" href="\', escape=False)\n        response.write(URL(\'default\',\'user/login\'))\n        response.write(\'">\', escape=False)\n        response.write(T(\'Login\'))\n        response.write(\'</a>\\n              \', escape=False)\n        if \'register\' not in auth.settings.actions_disabled:\n            response.write(\'\\n              <a class="dropdown-item" href="\', escape=False)\n            response.write(URL(\'default\',\'user/register\'))\n            response.write(\'">\', escape=False)\n            response.write(T(\'Sign up\'))\n            response.write(\'</a>\\n              \', escape=False)\n            pass\n        response.write(\'\\n              \', escape=False)\n        if \'retrieve_password\' not in auth.settings.actions_disabled:\n            response.write(\'\\n              <a class="dropdown-item" href="\', escape=False)\n            response.write(URL(\'default\',\'user/retrieve_password\'))\n            response.write(\'">\', escape=False)\n            response.write(T(\'Lost Password\'))\n            response.write(\'</a>\\n              \', escape=False)\n            pass\n        response.write(\'\\n              \', escape=False)\n        pass\n    response.write(\'\\n            </div>\\n          </li>\\n        </ul>\\n        \', escape=False)\n    pass\nresponse.write(\'\\n      </div>\\n    </nav>\\n\\n    <!-- Masthead ===================================== -->\\n    \', escape=False)\nresponse.write(\'\\n<script src="\', escape=False)\nresponse.write(URL(\'static\', \'js/vue.js\'))\nresponse.write(\'"></script>\\n\\n<script>\\n  var getPostsUrl = "\', escape=False)\nresponse.write(URL(\'api\', \'get_all_posts\'))\nresponse.write(\'";\\n  var insertPostUrl = "\', escape=False)\nresponse.write(URL(\'api\', \'insert_post\'))\nresponse.write(\'";\\n  var editPostUrl = "\', escape=False)\nresponse.write(URL(\'api\', \'edit_posts\'))\nresponse.write(\'";\\n  var getImageUrl = "\', escape=False)\nresponse.write(URL(\'api\', \'myform\'))\nresponse.write(\'";\\n</script>\\n\\n\\n<div class = "back">\\n    \\n  <div id="app">\\n\\n    \\n\\n    <!-- Display/Edit Post form Here -->\\n\\n    <div class="posts">\\n        <button type="addpost" class="btn btn-info right" data-toggle="modal" data-target="#addpostModal">\\n          Add Post\\n        </button> <br> <br>\\n      <div v-for="post in posts" class="post-box center">\\n        \\n        <div v-if="!post.editing">\\n            <!--    <div class="author">Author: \', escape=False)\nresponse.write(r[\'post_author\'])\nresponse.write(\'</div> -->\\n          <p>Author: ${ post.username } </p>\\n          <p>Title: ${ post.title }</p>\\n          <p>Content: ${ post.post_content }</p>\\n          <button> <i class="fa fa-pencil-square-o" v-on:click="editPost(post._idx)"> Edit</i> </button>\\n        </div>\\n\\n        <div v-if="post.editing">\\n          <input type="text" v-model="post.title"/>\\n          <textarea v-model="post.post_content"></textarea>\\n          <button v-on:click="savePost(post._idx)">Save</button>\\n        </div>\\n        \\n        <!--New add image button-->\\n        <a href="\', escape=False)\nresponse.write(URL(\'default\', \'myform\'))\nresponse.write(\'" class="btn">Add Image</a>\\n\\n        <!-- 2nd way to add-->\\n        <p><input type="file"  accept="image/*" name="image" id="file"  onchange="loadFile(event)" style="display: none;"></p>\\n        <p><label for="file" style="cursor: pointer;">Upload Image</label></p>\\n        <p><img id="output" width="170" /></p>\\n        \\n\\n          <!--\\n          <button type="button" class="btn btn-info" data-toggle="modal" data-target="#postcontentModal">Expand</button>\\n    \\n          <div class="modal fade" id="postcontentModal" role="dialog">\\n            <div class="modal-header">\\n              <button type="button" class="close" data-dismiss="modal">&times;</button>\\n              <h4 class="modal-title">${ post.title }</h4>\\n            </div>\\n            <div class="modal-body">\\n              <p>${ post.post_content }</p>\\n            </div>\\n            <div class="modal-footer">\\n              <button type="button" class="btn btn-default" data-dismiss="modal">Close</button>\\n            </div>\\n          </div>\\n          -->\\n      </div>\\n    </div>\\n    \\n\\n    <div class="modal fade" id="addpostModal" tabindex="-1" role="dialog" aria-labelledby="addpostLabel" aria-hidden="true">\\n      <div class="modal-dialog" role="document">\\n          <div class="modal-content">\\n              <div class="modal-header">\\n                  <h5 class="modal-title" id="addposttitle">Add Post</h5>\\n                  <button type="button" class="close" data-dismiss="modal" aria-label="close">\\n                    <span aria-hidden="true">&times;</span>\\n                  </button>\\n              </div>\\n              <div class="modal-body">\\n                <!-- Edit add post form here -->\\n                <div class="row">\\n                  <div class="form-group col-6">\\n                    <input v-model="newPostTitle" id="postname" placeholder="Title *" required type="text">\\n                  </div>\\n                  <div class="form-group col-9">\\n                    <textarea v-model="newPostContent" cols="50" id="post" name="post" placeholder="Enter content *" rows="7" required type="text"></textarea>\\n                  </div>\\n\\n                  \\n                </div>\\n              </div>\\n\\n              <div class="modal-footer">\\n                <button v-on:click="submitPost" class="btn btn-outline-info" data-dismiss="modal">Add Post</button>\\n                <button type="button" class="btn btn-outline-secondary" data-dismiss="modal">Close</button>\\n              </div>\\n          </div>\\n      </div>\\n    </div>\\n\\n  </div>\\n\\n  <script src="\', escape=False)\nresponse.write(URL(\'static\', \'js/default_index.js\'))\nresponse.write(\'"></script>\\n</div>\\n\\n\', escape=False)\nresponse.write(\'\\n    <!-- Main ========================================= -->\\n    <!-- Begin page content -->\\n    <div class="container-fluid main-container">\\n      \', escape=False)\nresponse.write(\'\\n\\n\', escape=False)\nresponse.write(\'\\n      \', escape=False)\nresponse.write(response.toolbar() if response.show_toolbar else \'\')\nresponse.write(\'\\n    </div>\\n    \\n    \', escape=False)\nresponse.write(\' <!-- this is default footer -->\\n    \\n      <footer class="footer container-fluid">\\n          <nav class="navbar navbar-light navbar-expand-md bg-faded bg-dark navbar-dark justify-content-center">\\n          <div class="row">\\n            <div class="col-md-12">\\n              <div class="copyright center">\', escape=False)\nresponse.write(T(\'Copyright\'))\nresponse.write(\' &#169; \', escape=False)\nresponse.write(request.now.year)\nresponse.write(\'</div>\\n            </div>\\n          </div>\\n        </nav>\\n    </footer>\\n    \', escape=False)\nresponse.write(\'\\n    <!-- The javascript =============================== -->\\n    <script src="\', escape=False)\nresponse.write(URL(\'static\',\'js/bootstrap.bundle.min.js\'))\nresponse.write(\'"></script>\\n    <script src="\', escape=False)\nresponse.write(URL(\'static\',\'js/web2py-bootstrap4.js\'))\nresponse.write(\'"></script>\\n    \', escape=False)\nresponse.write(\'\\n    \', escape=False)\nif response.google_analytics_id:\n    response.write(\'\\n    <!-- Analytics ==================================== -->\\n    <script src="\', escape=False)\n    response.write(URL(\'static\',\'js/analytics.min.js\'))\n    response.write(\'"></script>\\n    <script type="text/javascript">\\n      analytics.initialize({\\n      \\\'Google Analytics\\\':{trackingId:\\\'\', escape=False)\n    response.write(response.google_analytics_id)\n    response.write("\'}\\n      });\\n    </script>\\n    ", escape=False)\n    pass\nresponse.write(\'\\n  </body>\\n</html>\', escape=False)'
p7
sS'snapshot'
p8
(dp9
sS'traceback'
p10
S'Traceback (most recent call last):\n  File "/mnt/c/Users/Me/Desktop/UCSC/CS183/said-it/gluon/restricted.py", line 219, in restricted\n    exec(ccode, environment)\n  File "/mnt/c/Users/Me/Desktop/UCSC/CS183/said-it/applications/init/views/default/index.html", line 135, in <module>\nNameError: name \'r\' is not defined\n'
p11
s.