(dp1
S'output'
p2
S"<type 'exceptions.AttributeError'> 'DAL' object has no attribute 'post'"
p3
sS'layer'
p4
S'/mnt/c/Users/Ziming/Desktop/UCSC-Fall-18/CMPS183/said-it/applications/init/controllers/default.py'
p5
sS'code'
p6
S'<code object <module> at 0x7fb74c47b630, file "/mnt/c/Users/Ziming/Desktop/UCSC-Fall-18/CMPS183/said-it/applications/init/controllers/default.py", line 7>'
p7
sS'snapshot'
p8
(dp9
sS'traceback'
p10
S'Traceback (most recent call last):\n  File "/mnt/c/Users/Ziming/Desktop/UCSC-Fall-18/CMPS183/said-it/gluon/restricted.py", line 219, in restricted\n    exec(ccode, environment)\n  File "/mnt/c/Users/Ziming/Desktop/UCSC-Fall-18/CMPS183/said-it/applications/init/controllers/default.py", line 158, in <module>\n  File "/mnt/c/Users/Ziming/Desktop/UCSC-Fall-18/CMPS183/said-it/gluon/globals.py", line 421, in <lambda>\n    self._caller = lambda f: f()\n  File "/mnt/c/Users/Ziming/Desktop/UCSC-Fall-18/CMPS183/said-it/gluon/tools.py", line 3867, in f\n    return action(*a, **b)\n  File "/mnt/c/Users/Ziming/Desktop/UCSC-Fall-18/CMPS183/said-it/applications/init/controllers/default.py", line 21, in add_post\n    form = SQLFORM(db.post)\n  File "/mnt/c/Users/Ziming/Desktop/UCSC-Fall-18/CMPS183/said-it/gluon/packages/dal/pydal/base.py", line 673, in __getattr__\n    return BasicStorage.__getattribute__(self, key)\nAttributeError: \'DAL\' object has no attribute \'post\'\n'
p11
s.